; Function Attrs: mustprogress nounwind uwtable
define hidden void @_ZN17JfrThreadSamplingD2Ev(ptr nocapture noundef nonnull readonly align 8 dereferenceable(8) %0) unnamed_addr #0 align 2 {
  %2 = load ptr, ptr %0, align 8
  %.not = icmp eq ptr %2, null
  br i1 %.not, label %_ZN16JfrThreadSampler9disenrollEv.exit, label %3

3:                                                ; preds = %1
  %4 = getelementptr inbounds i8, ptr %2, i64 992
  %5 = load volatile i8, ptr %4, align 8
  %6 = trunc i8 %5 to i1
  br i1 %6, label %_ZN16JfrThreadSampler9disenrollEv.exit, label %7

7:                                                ; preds = %3
  %8 = getelementptr inbounds i8, ptr %2, i64 896
  tail call void @_ZN14PosixSemaphore4waitEv(ptr noundef nonnull align 8 dereferenceable(32) %8) #18
  store volatile i8 1, ptr %4, align 8
  %9 = load volatile ptr, ptr getelementptr inbounds (i8, ptr @_ZN16LogTagSetMappingILN6LogTag4typeE64ELS1_0ELS1_0ELS1_0ELS1_0ELS1_0EE7_tagsetE, i64 48), align 8
  %.not.i = icmp eq ptr %9, null
  br i1 %.not.i, label %_ZN16JfrThreadSampler9disenrollEv.exit, label %10

10:                                               ; preds = %7
  tail call void (ptr, ...) @_ZN7LogImplILN6LogTag4typeE64ELS1_0ELS1_0ELS1_0ELS1_0ELS1_0EE5writeILN8LogLevel4typeE1EEEvPKcz(ptr noundef nonnull @.str.10)
  br label %_ZN16JfrThreadSampler9disenrollEv.exit

_ZN16JfrThreadSampler9disenrollEv.exit:           ; preds = %10, %7, %3, %1
  ret void
}